; Function Attrs: nounwind sspstrong uwtable
define internal range(i64 0, 21) i64 @rb_thread_abort_exc(i64 noundef %0) #0 {
  %2 = tail call ptr @rb_check_typeddata(i64 noundef %0, ptr noundef nonnull @ruby_threadptr_data_type) #17
  %3 = getelementptr inbounds nuw i8, ptr %2, i64 240
  %4 = load i8, ptr %3, align 8
  %5 = and i8 %4, 16
  %.not = icmp eq i8 %5, 0
  %6 = select i1 %.not, i64 0, i64 20
  ret i64 %6
}